; Function Attrs: nounwind sspstrong uwtable
define internal noundef i64 @rb_mod_const_set(i64 noundef %0, i64 noundef %1, i64 noundef returned %2) #2 {
  %4 = alloca i64, align 8
  store i64 %1, ptr %4, align 8, !tbaa !7
  %5 = call i64 @rb_check_id(ptr noundef nonnull %4) #23
  %6 = load i64, ptr %4, align 8, !tbaa !7
  %.not.i = icmp eq i64 %5, 0
  br i1 %.not.i, label %9, label %7

7:                                                ; preds = %3
  %8 = call i32 @rb_is_const_id(i64 noundef %5) #23, !callees !97
  %.not12.i = icmp eq i32 %8, 0
  br i1 %.not12.i, label %11, label %check_setter_id.exit

9:                                                ; preds = %3
  %10 = call i32 @rb_is_const_name(i64 noundef %6) #23, !callees !98
  %.not11.i = icmp eq i32 %10, 0
  br i1 %.not11.i, label %11, label %13

11:                                               ; preds = %9, %7
  %12 = call i64 @rb_fstring_new(ptr noundef nonnull @bad_const_name, i64 noundef 24) #23
  call fastcc void @rb_name_err_raise_str(i64 noundef %12, i64 noundef %0, i64 noundef %6) #27
  unreachable

13:                                               ; preds = %9
  %14 = load i64, ptr %4, align 8, !tbaa !7
  %15 = call i64 @rb_intern_str(i64 noundef %14) #23
  br label %check_setter_id.exit

check_setter_id.exit:                             ; preds = %7, %13
  %.0 = phi i64 [ %15, %13 ], [ %5, %7 ]
  call void @rb_const_set(i64 noundef %0, i64 noundef %.0, i64 noundef %2) #23
  ret i64 %2
}